; Function Attrs: mustprogress uwtable
define internal noundef ptr @_ZNK7testing8internal26CartesianProductGenerator3IN2cv5Size_IiEEN11opencv_test12_GLOBAL__N_112_GLOBAL__N_110ApproxModeEiE3EndEv(ptr noundef nonnull align 8 dereferenceable(56) %0) unnamed_addr #3 align 2 personality ptr @__gxx_personality_v0 {
  %2 = alloca %"class.testing::internal::ParamIterator", align 8
  %3 = alloca %"class.testing::internal::ParamIterator.118", align 8
  %4 = alloca %"class.testing::internal::ParamIterator.120", align 8
  %5 = tail call noalias noundef nonnull dereferenceable(104) ptr @_Znwm(i64 noundef 104) #28
  %6 = getelementptr inbounds i8, ptr %0, i64 8
  tail call void @llvm.experimental.noalias.scope.decl(metadata !201)
  %7 = load ptr, ptr %6, align 8, !noalias !201
  %8 = load ptr, ptr %7, align 8, !noalias !201
  %9 = getelementptr inbounds i8, ptr %8, i64 24
  %10 = load ptr, ptr %9, align 8, !noalias !201
  %11 = invoke noundef ptr %10(ptr noundef nonnull align 8 dereferenceable(8) %7)
          to label %12 unwind label %54

12:                                               ; preds = %1
  store ptr %11, ptr %2, align 8, !alias.scope !201
  %13 = getelementptr inbounds i8, ptr %0, i64 24
  %.val = load ptr, ptr %13, align 8
  tail call void @llvm.experimental.noalias.scope.decl(metadata !204)
  %14 = load ptr, ptr %.val, align 8, !noalias !204
  %15 = getelementptr inbounds i8, ptr %14, i64 24
  %16 = load ptr, ptr %15, align 8, !noalias !204
  %17 = invoke noundef ptr %16(ptr noundef nonnull align 8 dereferenceable(8) %.val)
          to label %18 unwind label %56

18:                                               ; preds = %12
  store ptr %17, ptr %3, align 8, !alias.scope !204
  %19 = getelementptr inbounds i8, ptr %0, i64 40
  tail call void @llvm.experimental.noalias.scope.decl(metadata !207)
  %20 = load ptr, ptr %19, align 8, !noalias !207
  %21 = load ptr, ptr %20, align 8, !noalias !207
  %22 = getelementptr inbounds i8, ptr %21, i64 24
  %23 = load ptr, ptr %22, align 8, !noalias !207
  %24 = invoke noundef ptr %23(ptr noundef nonnull align 8 dereferenceable(8) %20)
          to label %25 unwind label %58

25:                                               ; preds = %18
  store ptr %24, ptr %4, align 8, !alias.scope !207
  invoke fastcc void @_ZN7testing8internal26CartesianProductGenerator3IN2cv5Size_IiEEN11opencv_test12_GLOBAL__N_112_GLOBAL__N_110ApproxModeEiE8IteratorC2EPKNS0_23ParamGeneratorInterfaceISt5tupleIJS4_S8_iEEEERKNS0_14ParamGeneratorIS4_EERKNS0_13ParamIteratorIS4_EERKNSH_IS8_EERKNSL_IS8_EERKNSH_IiEERKNSL_IiEE(ptr noundef nonnull align 8 dereferenceable(104) %5, ptr noundef nonnull %0, ptr noundef nonnull align 8 dereferenceable(16) %6, ptr noundef nonnull align 8 dereferenceable(8) %2, ptr noundef nonnull align 8 dereferenceable(16) %13, ptr noundef nonnull align 8 dereferenceable(8) %3, ptr noundef nonnull align 8 dereferenceable(16) %19, ptr noundef nonnull align 8 dereferenceable(8) %4)
          to label %26 unwind label %60

26:                                               ; preds = %25
  %.not.i.i.i = icmp eq ptr %24, null
  br i1 %.not.i.i.i, label %_ZN7testing8internal13ParamIteratorIiED2Ev.exit, label %27

27:                                               ; preds = %26
  %28 = invoke noundef zeroext i1 @_ZN7testing8internal6IsTrueEb(i1 noundef zeroext true)
          to label %.noexc.i.i unwind label %33

.noexc.i.i:                                       ; preds = %27
  br i1 %28, label %29, label %_ZN7testing8internal13ParamIteratorIiED2Ev.exit

29:                                               ; preds = %.noexc.i.i
  %30 = load ptr, ptr %24, align 8
  %31 = getelementptr inbounds i8, ptr %30, i64 8
  %32 = load ptr, ptr %31, align 8
  tail call void %32(ptr noundef nonnull align 8 dereferenceable(8) %24) #25
  br label %_ZN7testing8internal13ParamIteratorIiED2Ev.exit

33:                                               ; preds = %27
  %34 = landingpad { ptr, i32 }
          catch ptr null
  %35 = extractvalue { ptr, i32 } %34, 0
  tail call void @__clang_call_terminate(ptr %35) #26
  unreachable

_ZN7testing8internal13ParamIteratorIiED2Ev.exit:  ; preds = %.noexc.i.i, %29, %26
  %.not.i.i.i9 = icmp eq ptr %17, null
  br i1 %.not.i.i.i9, label %_ZN7testing8internal13ParamIteratorIN11opencv_test12_GLOBAL__N_112_GLOBAL__N_110ApproxModeEED2Ev.exit, label %36

36:                                               ; preds = %_ZN7testing8internal13ParamIteratorIiED2Ev.exit
  %37 = invoke noundef zeroext i1 @_ZN7testing8internal6IsTrueEb(i1 noundef zeroext true)
          to label %.noexc.i.i10 unwind label %42

.noexc.i.i10:                                     ; preds = %36
  br i1 %37, label %38, label %_ZN7testing8internal13ParamIteratorIN11opencv_test12_GLOBAL__N_112_GLOBAL__N_110ApproxModeEED2Ev.exit

38:                                               ; preds = %.noexc.i.i10
  %39 = load ptr, ptr %17, align 8
  %40 = getelementptr inbounds i8, ptr %39, i64 8
  %41 = load ptr, ptr %40, align 8
  tail call void %41(ptr noundef nonnull align 8 dereferenceable(8) %17) #25
  br label %_ZN7testing8internal13ParamIteratorIN11opencv_test12_GLOBAL__N_112_GLOBAL__N_110ApproxModeEED2Ev.exit

42:                                               ; preds = %36
  %43 = landingpad { ptr, i32 }
          catch ptr null
  %44 = extractvalue { ptr, i32 } %43, 0
  tail call void @__clang_call_terminate(ptr %44) #26
  unreachable

_ZN7testing8internal13ParamIteratorIN11opencv_test12_GLOBAL__N_112_GLOBAL__N_110ApproxModeEED2Ev.exit: ; preds = %.noexc.i.i10, %38, %_ZN7testing8internal13ParamIteratorIiED2Ev.exit
  %.not.i.i.i11 = icmp eq ptr %11, null
  br i1 %.not.i.i.i11, label %_ZN7testing8internal13ParamIteratorIN2cv5Size_IiEEED2Ev.exit, label %45

45:                                               ; preds = %_ZN7testing8internal13ParamIteratorIN11opencv_test12_GLOBAL__N_112_GLOBAL__N_110ApproxModeEED2Ev.exit
  %46 = invoke noundef zeroext i1 @_ZN7testing8internal6IsTrueEb(i1 noundef zeroext true)
          to label %.noexc.i.i12 unwind label %51

.noexc.i.i12:                                     ; preds = %45
  br i1 %46, label %47, label %_ZN7testing8internal13ParamIteratorIN2cv5Size_IiEEED2Ev.exit

47:                                               ; preds = %.noexc.i.i12
  %48 = load ptr, ptr %11, align 8
  %49 = getelementptr inbounds i8, ptr %48, i64 8
  %50 = load ptr, ptr %49, align 8
  tail call void %50(ptr noundef nonnull align 8 dereferenceable(8) %11) #25
  br label %_ZN7testing8internal13ParamIteratorIN2cv5Size_IiEEED2Ev.exit

51:                                               ; preds = %45
  %52 = landingpad { ptr, i32 }
          catch ptr null
  %53 = extractvalue { ptr, i32 } %52, 0
  tail call void @__clang_call_terminate(ptr %53) #26
  unreachable

_ZN7testing8internal13ParamIteratorIN2cv5Size_IiEEED2Ev.exit: ; preds = %.noexc.i.i12, %47, %_ZN7testing8internal13ParamIteratorIN11opencv_test12_GLOBAL__N_112_GLOBAL__N_110ApproxModeEED2Ev.exit
  ret ptr %5

54:                                               ; preds = %1
  %55 = landingpad { ptr, i32 }
          cleanup
  br label %64

56:                                               ; preds = %12
  %57 = landingpad { ptr, i32 }
          cleanup
  br label %63

58:                                               ; preds = %18
  %59 = landingpad { ptr, i32 }
          cleanup
  br label %62

60:                                               ; preds = %25
  %61 = landingpad { ptr, i32 }
          cleanup
  call void @_ZN7testing8internal13ParamIteratorIiED2Ev(ptr noundef nonnull align 8 dereferenceable(8) %4) #25
  br label %62

62:                                               ; preds = %60, %58
  %.pn = phi { ptr, i32 } [ %61, %60 ], [ %59, %58 ]
  call fastcc void @_ZN7testing8internal13ParamIteratorIN11opencv_test12_GLOBAL__N_112_GLOBAL__N_110ApproxModeEED2Ev(ptr noundef nonnull align 8 dereferenceable(8) %3) #25
  br label %63

63:                                               ; preds = %62, %56
  %.pn.pn = phi { ptr, i32 } [ %.pn, %62 ], [ %57, %56 ]
  call void @_ZN7testing8internal13ParamIteratorIN2cv5Size_IiEEED2Ev(ptr noundef nonnull align 8 dereferenceable(8) %2) #25
  br label %64

64:                                               ; preds = %54, %63
  %.pn.pn.pn = phi { ptr, i32 } [ %.pn.pn, %63 ], [ %55, %54 ]
  call void @_ZdlPv(ptr noundef nonnull %5) #29
  resume { ptr, i32 } %.pn.pn.pn
}